Certificate:
    Data:
        Version: 3 (0x2)
        Serial Number: 1 (0x1)
    Signature Algorithm: sha1WithRSAEncryption
        Issuer: C=US, ST=CA, L=SanFrancisco, O=Fort-Funston, CN=Fort-Funston CA/emailAddress=me@myhost.mydomain
        Validity
            Not Before: Oct  3 03:15:15 2018 GMT
            Not After : Sep 30 03:15:15 2028 GMT
        Subject: C=US, ST=CA, L=SanFrancisco, O=Fort-Funston, CN=server/emailAddress=me@myhost.mydomain
        Subject Public Key Info:
            Public Key Algorithm: rsaEncryption
                Public-Key: (1024 bit)
                Modulus:
                    00:f2:41:38:fd:f4:7d:b0:c3:d9:81:77:57:7a:92:
                    63:48:20:f2:4b:12:62:1c:de:d8:3a:db:fc:11:d8:
                    78:43:45:d9:0f:e7:0d:5a:0f:67:29:db:c9:f9:fb:
                    11:79:df:70:0a:fc:24:58:e5:88:cb:82:89:32:18:
                    9a:22:e4:9f:21:92:61:bb:c7:05:dc:d2:b7:40:95:
                    c2:5d:fe:e7:6a:4e:66:82:67:2b:1f:54:dc:3f:57:
                    41:b5:e7:4f:0b:57:b4:11:ed:73:2c:a7:a4:49:b8:
                    29:ce:aa:fa:67:ea:01:4d:31:5f:74:67:73:28:32:
                    80:5f:08:67:61:04:c7:c8:f1
                Exponent: 65537 (0x10001)
        X509v3 extensions:
            X509v3 Basic Constraints: 
                CA:FALSE
            Netscape Cert Type: 
                SSL Server
            Netscape Comment: 
                Easy-RSA Generated Server Certificate
            X509v3 Subject Key Identifier: 
                BA:76:6E:E0:77:15:10:AF:53:57:8F:DB:DA:94:43:FB:09:A8:28:20
            X509v3 Authority Key Identifier: 
                keyid:CB:2D:8E:40:C2:70:3D:C3:05:B1:36:8B:C9:9D:2B:3C:90:A0:3E:A2
                DirName:/C=US/ST=CA/L=SanFrancisco/O=Fort-Funston/CN=Fort-Funston CA/emailAddress=me@myhost.mydomain
                serial:E5:97:3D:5A:AE:52:91:AE

            X509v3 Extended Key Usage: 
                TLS Web Server Authentication
            X509v3 Key Usage: 
                Digital Signature, Key Encipherment
    Signature Algorithm: sha1WithRSAEncryption
         ac:d0:9b:61:c7:f5:14:bf:e7:3c:c9:9d:e2:92:77:a2:a3:d4:
         1a:63:dc:01:76:dd:bf:d5:8d:8c:f4:1e:c9:db:07:d5:55:a2:
         81:fc:b9:a2:ce:ef:5f:c4:6a:13:04:6a:43:28:6a:16:bd:00:
         ff:e4:36:f2:fe:28:d4:1c:b3:fa:b1:55:45:9a:cd:f6:12:8c:
         fb:e2:0e:e8:62:34:7e:01:da:f5:48:60:24:06:1f:f5:d2:4f:
         f3:53:df:0a:cc:2e:27:47:e7:71:ca:5c:75:65:e5:c4:49:8a:
         91:4a:82:39:c2:85:93:89:8d:a2:9f:bf:e7:f9:a9:9d:b2:fa:
         28:ab
-----BEGIN CERTIFICATE-----
MIID0DCCAzmgAwIBAgIBATANBgkqhkiG9w0BAQUFADCBhTELMAkGA1UEBhMCVVMx
CzAJBgNVBAgTAkNBMRUwEwYDVQQHEwxTYW5GcmFuY2lzY28xFTATBgNVBAoTDEZv
cnQtRnVuc3RvbjEYMBYGA1UEAxMPRm9ydC1GdW5zdG9uIENBMSEwHwYJKoZIhvcN
AQkBFhJtZUBteWhvc3QubXlkb21haW4wHhcNMTgxMDAzMDMxNTE1WhcNMjgwOTMw
MDMxNTE1WjB8MQswCQYDVQQGEwJVUzELMAkGA1UECBMCQ0ExFTATBgNVBAcTDFNh
bkZyYW5jaXNjbzEVMBMGA1UEChMMRm9ydC1GdW5zdG9uMQ8wDQYDVQQDEwZzZXJ2
ZXIxITAfBgkqhkiG9w0BCQEWEm1lQG15aG9zdC5teWRvbWFpbjCBnzANBgkqhkiG
9w0BAQEFAAOBjQAwgYkCgYEA8kE4/fR9sMPZgXdXepJjSCDySxJiHN7YOtv8Edh4
Q0XZD+cNWg9nKdvJ+fsRed9wCvwkWOWIy4KJMhiaIuSfIZJhu8cF3NK3QJXCXf7n
ak5mgmcrH1TcP1dBtedPC1e0Ee1zLKekSbgpzqr6Z+oBTTFfdGdzKDKAXwhnYQTH
yPECAwEAAaOCAVYwggFSMAkGA1UdEwQCMAAwEQYJYIZIAYb4QgEBBAQDAgZAMDQG
CWCGSAGG+EIBDQQnFiVFYXN5LVJTQSBHZW5lcmF0ZWQgU2VydmVyIENlcnRpZmlj
YXRlMB0GA1UdDgQWBBS6dm7gdxUQr1NXj9valEP7CagoIDCBugYDVR0jBIGyMIGv
gBTLLY5AwnA9wwWxNovJnSs8kKA+oqGBi6SBiDCBhTELMAkGA1UEBhMCVVMxCzAJ
BgNVBAgTAkNBMRUwEwYDVQQHEwxTYW5GcmFuY2lzY28xFTATBgNVBAoTDEZvcnQt
RnVuc3RvbjEYMBYGA1UEAxMPRm9ydC1GdW5zdG9uIENBMSEwHwYJKoZIhvcNAQkB
FhJtZUBteWhvc3QubXlkb21haW6CCQDllz1arlKRrjATBgNVHSUEDDAKBggrBgEF
BQcDATALBgNVHQ8EBAMCBaAwDQYJKoZIhvcNAQEFBQADgYEArNCbYcf1FL/nPMmd
4pJ3oqPUGmPcAXbdv9WNjPQeydsH1VWigfy5os7vX8RqEwRqQyhqFr0A/+Q28v4o
1Byz+rFVRZrN9hKM++IO6GI0fgHa9UhgJAYf9dJP81PfCswuJ0fnccpcdWXlxEmK
kUqCOcKFk4mNop+/5/mpnbL6KKs=
-----END CERTIFICATE-----
