Certificate:
    Data:
        Version: 3 (0x2)
        Serial Number: 2 (0x2)
    Signature Algorithm: sha1WithRSAEncryption
        Issuer: C=US, ST=CA, L=SanFrancisco, O=Fort-Funston, CN=Fort-Funston CA/emailAddress=me@myhost.mydomain
        Validity
            Not Before: Oct  3 03:15:49 2018 GMT
            Not After : Sep 30 03:15:49 2028 GMT
        Subject: C=US, ST=CA, L=SanFrancisco, O=Fort-Funston, CN=client/emailAddress=me@myhost.mydomain
        Subject Public Key Info:
            Public Key Algorithm: rsaEncryption
                Public-Key: (1024 bit)
                Modulus:
                    00:cb:85:94:00:66:a9:42:30:a3:fc:4e:bd:d3:72:
                    4e:2e:21:ad:fb:d7:99:1a:1b:62:76:03:1b:34:f6:
                    08:1d:dc:9e:a8:48:7c:75:27:7a:80:f3:a1:eb:3d:
                    76:13:3e:0c:07:5e:31:6e:dc:cd:4f:c3:67:f8:c9:
                    67:0a:8f:63:e0:c6:31:b8:f7:b7:39:22:36:e3:5d:
                    4f:e5:25:4d:03:58:15:a6:b5:be:ef:46:c6:22:1f:
                    31:3e:f6:61:19:be:b1:2f:b9:af:14:36:29:2f:dd:
                    71:90:e1:d4:2b:cf:33:c6:e3:c1:62:0b:4a:1c:4f:
                    c8:03:7e:f9:ad:84:0e:8f:fd
                Exponent: 65537 (0x10001)
        X509v3 extensions:
            X509v3 Basic Constraints: 
                CA:FALSE
            Netscape Comment: 
                Easy-RSA Generated Certificate
            X509v3 Subject Key Identifier: 
                42:3C:E5:28:7A:D7:39:E4:10:F6:90:46:C5:36:1B:79:D1:8A:CB:70
            X509v3 Authority Key Identifier: 
                keyid:CB:2D:8E:40:C2:70:3D:C3:05:B1:36:8B:C9:9D:2B:3C:90:A0:3E:A2
                DirName:/C=US/ST=CA/L=SanFrancisco/O=Fort-Funston/CN=Fort-Funston CA/emailAddress=me@myhost.mydomain
                serial:E5:97:3D:5A:AE:52:91:AE

            X509v3 Extended Key Usage: 
                TLS Web Client Authentication
            X509v3 Key Usage: 
                Digital Signature
    Signature Algorithm: sha1WithRSAEncryption
         84:df:4e:a0:f4:fb:a5:a3:72:52:7f:5d:de:a7:7d:17:6b:46:
         1e:25:63:30:75:36:50:82:91:fe:15:08:3e:b9:38:8e:d7:16:
         a3:de:09:bb:77:9c:14:36:e5:db:c2:73:63:f5:98:e7:a6:f1:
         9e:16:16:99:d0:e7:19:40:66:3e:04:96:db:7a:c3:95:25:c0:
         6a:9d:d1:cb:b9:fe:7c:66:51:f9:8f:4d:59:93:7e:6e:8f:89:
         4c:db:bd:aa:51:64:4e:8b:d6:dc:77:57:64:6d:b9:c8:b9:33:
         20:3d:bc:f3:32:04:97:26:27:58:ad:a4:b7:86:52:08:c7:b1:
         1d:42
-----BEGIN CERTIFICATE-----
MIIDtjCCAx+gAwIBAgIBAjANBgkqhkiG9w0BAQUFADCBhTELMAkGA1UEBhMCVVMx
CzAJBgNVBAgTAkNBMRUwEwYDVQQHEwxTYW5GcmFuY2lzY28xFTATBgNVBAoTDEZv
cnQtRnVuc3RvbjEYMBYGA1UEAxMPRm9ydC1GdW5zdG9uIENBMSEwHwYJKoZIhvcN
AQkBFhJtZUBteWhvc3QubXlkb21haW4wHhcNMTgxMDAzMDMxNTQ5WhcNMjgwOTMw
MDMxNTQ5WjB8MQswCQYDVQQGEwJVUzELMAkGA1UECBMCQ0ExFTATBgNVBAcTDFNh
bkZyYW5jaXNjbzEVMBMGA1UEChMMRm9ydC1GdW5zdG9uMQ8wDQYDVQQDEwZjbGll
bnQxITAfBgkqhkiG9w0BCQEWEm1lQG15aG9zdC5teWRvbWFpbjCBnzANBgkqhkiG
9w0BAQEFAAOBjQAwgYkCgYEAy4WUAGapQjCj/E6903JOLiGt+9eZGhtidgMbNPYI
HdyeqEh8dSd6gPOh6z12Ez4MB14xbtzNT8Nn+MlnCo9j4MYxuPe3OSI2411P5SVN
A1gVprW+70bGIh8xPvZhGb6xL7mvFDYpL91xkOHUK88zxuPBYgtKHE/IA375rYQO
j/0CAwEAAaOCATwwggE4MAkGA1UdEwQCMAAwLQYJYIZIAYb4QgENBCAWHkVhc3kt
UlNBIEdlbmVyYXRlZCBDZXJ0aWZpY2F0ZTAdBgNVHQ4EFgQUQjzlKHrXOeQQ9pBG
xTYbedGKy3AwgboGA1UdIwSBsjCBr4AUyy2OQMJwPcMFsTaLyZ0rPJCgPqKhgYuk
gYgwgYUxCzAJBgNVBAYTAlVTMQswCQYDVQQIEwJDQTEVMBMGA1UEBxMMU2FuRnJh
bmNpc2NvMRUwEwYDVQQKEwxGb3J0LUZ1bnN0b24xGDAWBgNVBAMTD0ZvcnQtRnVu
c3RvbiBDQTEhMB8GCSqGSIb3DQEJARYSbWVAbXlob3N0Lm15ZG9tYWluggkA5Zc9
Wq5Ska4wEwYDVR0lBAwwCgYIKwYBBQUHAwIwCwYDVR0PBAQDAgeAMA0GCSqGSIb3
DQEBBQUAA4GBAITfTqD0+6WjclJ/Xd6nfRdrRh4lYzB1NlCCkf4VCD65OI7XFqPe
Cbt3nBQ25dvCc2P1mOem8Z4WFpnQ5xlAZj4Eltt6w5UlwGqd0cu5/nxmUfmPTVmT
fm6PiUzbvapRZE6L1tx3V2Rtuci5MyA9vPMyBJcmJ1itpLeGUgjHsR1C
-----END CERTIFICATE-----
